target datalayout = "e-m:e-p270:32:32-p271:32:32-p272:64:64-i64:64-i128:128-f80:128-n8:16:32:64-S128"
target triple = "x86_64-unknown-linux-gnu"

%"class.grpc_core::Slice" = type { %"class.grpc_core::slice_detail::BaseSlice" }
%"class.grpc_core::slice_detail::BaseSlice" = type { %struct.grpc_slice }
%struct.grpc_slice = type { ptr, %"union.grpc_slice::grpc_slice_data" }
%"union.grpc_slice::grpc_slice_data" = type { %"struct.grpc_slice::grpc_slice_data::grpc_slice_refcounted", [8 x i8] }
%"struct.grpc_slice::grpc_slice_data::grpc_slice_refcounted" = type { i64, ptr }
%"class.std::basic_string_view" = type { i64, ptr }
%"class.grpc_core::StaticSlice" = type { %"class.grpc_core::slice_detail::BaseSlice" }

; Function Attrs: mustprogress uwtable
define linkonce_odr void @_ZN9grpc_core5SliceC2ERK10grpc_slice(ptr noundef nonnull align 8 dereferenceable(32) %this, ptr noundef nonnull align 8 dereferenceable(32) %slice) unnamed_addr #4 comdat align 2 {
entry:
  %this.addr = alloca ptr, align 8
  %slice.addr = alloca ptr, align 8
  store ptr %this, ptr %this.addr, align 8
  store ptr %slice, ptr %slice.addr, align 8
  %this1 = load ptr, ptr %this.addr, align 8
  %0 = load ptr, ptr %slice.addr, align 8
  call void @_ZN9grpc_core12slice_detail9BaseSliceC2ERK10grpc_slice(ptr noundef nonnull align 8 dereferenceable(32) %this1, ptr noundef nonnull align 8 dereferenceable(32) %0)
  ret void
}

; Function Attrs: mustprogress nounwind uwtable
define linkonce_odr void @_ZN9grpc_core12slice_detail9BaseSliceC2ERK10grpc_slice(ptr noundef nonnull align 8 dereferenceable(32) %this, ptr noundef nonnull align 8 dereferenceable(32) %slice) unnamed_addr #5 comdat align 2 {
entry:
  %this.addr = alloca ptr, align 8
  %slice.addr = alloca ptr, align 8
  store ptr %this, ptr %this.addr, align 8
  store ptr %slice, ptr %slice.addr, align 8
  %this1 = load ptr, ptr %this.addr, align 8
  %slice_ = getelementptr inbounds %"class.grpc_core::slice_detail::BaseSlice", ptr %this1, i32 0, i32 0
  %0 = load ptr, ptr %slice.addr, align 8
  call void @llvm.memcpy.p0.p0.i64(ptr align 8 %slice_, ptr align 8 %0, i64 32, i1 false)
  ret void
}

; Function Attrs: mustprogress uwtable
define linkonce_odr void @_ZN9grpc_core12slice_detail16CopyConstructorsINS_5SliceEE16FromCopiedBufferEPKcm(ptr noalias sret(%"class.grpc_core::Slice") align 8 %agg.result, ptr noundef %p, i64 noundef %len) #4 comdat align 2 {
entry:
  %result.ptr = alloca ptr, align 8
  %p.addr = alloca ptr, align 8
  %len.addr = alloca i64, align 8
  %ref.tmp = alloca %struct.grpc_slice, align 8
  store ptr %agg.result, ptr %result.ptr, align 8
  store ptr %p, ptr %p.addr, align 8
  store i64 %len, ptr %len.addr, align 8
  %0 = load ptr, ptr %p.addr, align 8
  %1 = load i64, ptr %len.addr, align 8
  call void @grpc_slice_from_copied_buffer(ptr sret(%struct.grpc_slice) align 8 %ref.tmp, ptr noundef %0, i64 noundef %1)
  call void @_ZN9grpc_core5SliceC2ERK10grpc_slice(ptr noundef nonnull align 8 dereferenceable(32) %agg.result, ptr noundef nonnull align 8 dereferenceable(32) %ref.tmp)
  ret void
}

; Function Attrs: mustprogress nounwind uwtable
define linkonce_odr void @_ZN9grpc_core11StaticSliceC2ERK10grpc_slice(ptr noundef nonnull align 8 dereferenceable(32) %this, ptr noundef nonnull align 8 dereferenceable(32) %slice) unnamed_addr #5 comdat align 2 {
entry:
  %this.addr = alloca ptr, align 8
  %slice.addr = alloca ptr, align 8
  store ptr %this, ptr %this.addr, align 8
  store ptr %slice, ptr %slice.addr, align 8
  %this1 = load ptr, ptr %this.addr, align 8
  %0 = load ptr, ptr %slice.addr, align 8
  call void @_ZN9grpc_core12slice_detail9BaseSliceC2ERK10grpc_slice(ptr noundef nonnull align 8 dereferenceable(32) %this1, ptr noundef nonnull align 8 dereferenceable(32) %0)
  ret void
}

; Function Attrs: mustprogress nounwind uwtable
define linkonce_odr noundef ptr @_ZN19grpc_slice_refcount12NoopRefcountEv() #5 comdat align 2 {
entry:
  ret ptr inttoptr (i64 1 to ptr)
}

; Function Attrs: mustprogress uwtable
define linkonce_odr void @_ZN9grpc_core12slice_detail16CopyConstructorsINS_5SliceEE16FromCopiedStringEPKc(ptr noalias sret(%"class.grpc_core::Slice") align 8 %agg.result, ptr noundef %s) #4 comdat align 2 {
entry:
  %result.ptr = alloca ptr, align 8
  %s.addr = alloca ptr, align 8
  store ptr %agg.result, ptr %result.ptr, align 8
  store ptr %s, ptr %s.addr, align 8
  %0 = load ptr, ptr %s.addr, align 8
  %1 = load ptr, ptr %s.addr, align 8
  %call = call i64 @strlen(ptr noundef %1) #21
  call void @_ZN9grpc_core12slice_detail16CopyConstructorsINS_5SliceEE16FromCopiedBufferEPKcm(ptr sret(%"class.grpc_core::Slice") align 8 %agg.result, ptr noundef %0, i64 noundef %call)
  ret void
}

; Function Attrs: mustprogress uwtable
define linkonce_odr void @_ZN9grpc_core12slice_detail18StaticConstructorsINS_11StaticSliceEE16FromStaticBufferEPKvm(ptr noalias sret(%"class.grpc_core::StaticSlice") align 8 %agg.result, ptr noundef %s, i64 noundef %len) #4 comdat align 2 {
entry:
  %result.ptr = alloca ptr, align 8
  %s.addr = alloca ptr, align 8
  %len.addr = alloca i64, align 8
  %slice = alloca %struct.grpc_slice, align 8
  store ptr %agg.result, ptr %result.ptr, align 8
  store ptr %s, ptr %s.addr, align 8
  store i64 %len, ptr %len.addr, align 8
  %call = call noundef ptr @_ZN19grpc_slice_refcount12NoopRefcountEv()
  %refcount = getelementptr inbounds %struct.grpc_slice, ptr %slice, i32 0, i32 0
  store ptr %call, ptr %refcount, align 8
  %0 = load ptr, ptr %s.addr, align 8
  %data = getelementptr inbounds %struct.grpc_slice, ptr %slice, i32 0, i32 1
  %bytes = getelementptr inbounds %"struct.grpc_slice::grpc_slice_data::grpc_slice_refcounted", ptr %data, i32 0, i32 1
  store ptr %0, ptr %bytes, align 8
  %1 = load i64, ptr %len.addr, align 8
  %data1 = getelementptr inbounds %struct.grpc_slice, ptr %slice, i32 0, i32 1
  %length = getelementptr inbounds %"struct.grpc_slice::grpc_slice_data::grpc_slice_refcounted", ptr %data1, i32 0, i32 0
  store i64 %1, ptr %length, align 8
  call void @_ZN9grpc_core11StaticSliceC2ERK10grpc_slice(ptr noundef nonnull align 8 dereferenceable(32) %agg.result, ptr noundef nonnull align 8 dereferenceable(32) %slice)
  ret void
}

; Function Attrs: mustprogress nounwind uwtable
define linkonce_odr noundef i64 @_ZNKSt17basic_string_viewIcSt11char_traitsIcEE4sizeEv(ptr noundef nonnull align 8 dereferenceable(16) %this) #5 comdat align 2 {
entry:
  %this.addr = alloca ptr, align 8
  store ptr %this, ptr %this.addr, align 8
  %this1 = load ptr, ptr %this.addr, align 8
  %_M_len = getelementptr inbounds %"class.std::basic_string_view", ptr %this1, i32 0, i32 0
  %0 = load i64, ptr %_M_len, align 8
  ret i64 %0
}

; Function Attrs: mustprogress nounwind uwtable
define linkonce_odr noundef ptr @_ZNKSt17basic_string_viewIcSt11char_traitsIcEE4dataEv(ptr noundef nonnull align 8 dereferenceable(16) %this) #5 comdat align 2 {
entry:
  %this.addr = alloca ptr, align 8
  store ptr %this, ptr %this.addr, align 8
  %this1 = load ptr, ptr %this.addr, align 8
  %_M_str = getelementptr inbounds %"class.std::basic_string_view", ptr %this1, i32 0, i32 1
  %0 = load ptr, ptr %_M_str, align 8
  ret ptr %0
}

; Function Attrs: mustprogress uwtable
define linkonce_odr void @_ZN9grpc_core12slice_detail16CopyConstructorsINS_5SliceEE9FromInt64El(ptr noalias sret(%"class.grpc_core::Slice") align 8 %agg.result, i64 noundef %i) #4 comdat align 2 {
entry:
  %result.ptr = alloca ptr, align 8
  %i.addr = alloca i64, align 8
  %buffer = alloca [24 x i8], align 16
  store ptr %agg.result, ptr %result.ptr, align 8
  store i64 %i, ptr %i.addr, align 8
  %0 = load i64, ptr %i.addr, align 8
  %arraydecay = getelementptr inbounds [24 x i8], ptr %buffer, i64 0, i64 0
  %call = call noundef i32 @_Z8gpr_ltoalPc(i64 noundef %0, ptr noundef %arraydecay)
  %arraydecay1 = getelementptr inbounds [24 x i8], ptr %buffer, i64 0, i64 0
  call void @_ZN9grpc_core12slice_detail16CopyConstructorsINS_5SliceEE16FromCopiedStringEPKc(ptr sret(%"class.grpc_core::Slice") align 8 %agg.result, ptr noundef %arraydecay1)
  ret void
}

; Function Attrs: mustprogress nounwind uwtable
define linkonce_odr noundef nonnull align 8 dereferenceable(32) ptr @_ZNK9grpc_core12slice_detail9BaseSlice7c_sliceEv(ptr noundef nonnull align 8 dereferenceable(32) %this) #5 comdat align 2 {
entry:
  %this.addr = alloca ptr, align 8
  store ptr %this, ptr %this.addr, align 8
  %this1 = load ptr, ptr %this.addr, align 8
  %slice_ = getelementptr inbounds %"class.grpc_core::slice_detail::BaseSlice", ptr %this1, i32 0, i32 0
  ret ptr %slice_
}

; Function Attrs: mustprogress uwtable
define linkonce_odr void @_ZN9grpc_core12slice_detail18StaticConstructorsINS_11StaticSliceEE16FromStaticStringESt17basic_string_viewIcSt11char_traitsIcEE(ptr noalias sret(%"class.grpc_core::StaticSlice") align 8 %agg.result, i64 %s.coerce0, ptr %s.coerce1) #4 comdat align 2 {
entry:
  %result.ptr = alloca ptr, align 8
  %s = alloca %"class.std::basic_string_view", align 8
  store ptr %agg.result, ptr %result.ptr, align 8
  %0 = getelementptr inbounds { i64, ptr }, ptr %s, i32 0, i32 0
  store i64 %s.coerce0, ptr %0, align 8
  %1 = getelementptr inbounds { i64, ptr }, ptr %s, i32 0, i32 1
  store ptr %s.coerce1, ptr %1, align 8
  %call = call noundef ptr @_ZNKSt17basic_string_viewIcSt11char_traitsIcEE4dataEv(ptr noundef nonnull align 8 dereferenceable(16) %s) #3
  %call1 = call noundef i64 @_ZNKSt17basic_string_viewIcSt11char_traitsIcEE4sizeEv(ptr noundef nonnull align 8 dereferenceable(16) %s) #3
  call void @_ZN9grpc_core12slice_detail18StaticConstructorsINS_11StaticSliceEE16FromStaticBufferEPKvm(ptr sret(%"class.grpc_core::StaticSlice") align 8 %agg.result, ptr noundef %call, i64 noundef %call1)
  ret void
}

; Function Attrs: mustprogress uwtable
define internal void @_ZN9grpc_core12_GLOBAL__N_119PublishToAppEncoder6AppendESt17basic_string_viewIcSt11char_traitsIcEEl(ptr noundef nonnull align 8 dereferenceable(17) %this, i64 %key.coerce0, ptr %key.coerce1, i64 noundef %value) #4 align 2 personality ptr @__gxx_personality_v0 {
entry:
  %key = alloca %"class.std::basic_string_view", align 8
  %this.addr = alloca ptr, align 8
  %value.addr = alloca i64, align 8
  %agg.tmp = alloca %struct.grpc_slice, align 8
  %ref.tmp = alloca %"class.grpc_core::StaticSlice", align 8
  %agg.tmp2 = alloca %"class.std::basic_string_view", align 8
  %agg.tmp3 = alloca %struct.grpc_slice, align 8
  %ref.tmp4 = alloca %"class.grpc_core::Slice", align 8
  %exn.slot = alloca ptr, align 8
  %ehselector.slot = alloca i32, align 4
  %0 = getelementptr inbounds { i64, ptr }, ptr %key, i32 0, i32 0
  store i64 %key.coerce0, ptr %0, align 8
  %1 = getelementptr inbounds { i64, ptr }, ptr %key, i32 0, i32 1
  store ptr %key.coerce1, ptr %1, align 8
  store ptr %this, ptr %this.addr, align 8
  store i64 %value, ptr %value.addr, align 8
  %this1 = load ptr, ptr %this.addr, align 8
  call void @llvm.memcpy.p0.p0.i64(ptr align 8 %agg.tmp2, ptr align 8 %key, i64 16, i1 false)
  %2 = getelementptr inbounds { i64, ptr }, ptr %agg.tmp2, i32 0, i32 0
  %3 = load i64, ptr %2, align 8
  %4 = getelementptr inbounds { i64, ptr }, ptr %agg.tmp2, i32 0, i32 1
  %5 = load ptr, ptr %4, align 8
  call void @_ZN9grpc_core12slice_detail18StaticConstructorsINS_11StaticSliceEE16FromStaticStringESt17basic_string_viewIcSt11char_traitsIcEE(ptr sret(%"class.grpc_core::StaticSlice") align 8 %ref.tmp, i64 %3, ptr %5)
  %call = call noundef nonnull align 8 dereferenceable(32) ptr @_ZNK9grpc_core12slice_detail9BaseSlice7c_sliceEv(ptr noundef nonnull align 8 dereferenceable(32) %ref.tmp)
  call void @llvm.memcpy.p0.p0.i64(ptr align 8 %agg.tmp, ptr align 8 %call, i64 32, i1 false)
  %6 = load i64, ptr %value.addr, align 8
  call void @_ZN9grpc_core12slice_detail16CopyConstructorsINS_5SliceEE9FromInt64El(ptr sret(%"class.grpc_core::Slice") align 8 %ref.tmp4, i64 noundef %6)
  %call5 = call noundef nonnull align 8 dereferenceable(32) ptr @_ZNK9grpc_core12slice_detail9BaseSlice7c_sliceEv(ptr noundef nonnull align 8 dereferenceable(32) %ref.tmp4)
  call void @llvm.memcpy.p0.p0.i64(ptr align 8 %agg.tmp3, ptr align 8 %call5, i64 32, i1 false)
  invoke void @_ZN9grpc_core12_GLOBAL__N_119PublishToAppEncoder6AppendE10grpc_sliceS2_(ptr noundef nonnull align 8 dereferenceable(17) %this1, ptr noundef byval(%struct.grpc_slice) align 8 %agg.tmp, ptr noundef byval(%struct.grpc_slice) align 8 %agg.tmp3)
          to label %invoke.cont unwind label %lpad

invoke.cont:                                      ; preds = %entry
  call void @_ZN9grpc_core5SliceD2Ev(ptr noundef nonnull align 8 dereferenceable(32) %ref.tmp4) #3
  ret void

lpad:                                             ; preds = %entry
  %7 = landingpad { ptr, i32 }
          cleanup
  %8 = extractvalue { ptr, i32 } %7, 0
  store ptr %8, ptr %exn.slot, align 8
  %9 = extractvalue { ptr, i32 } %7, 1
  store i32 %9, ptr %ehselector.slot, align 4
  call void @_ZN9grpc_core5SliceD2Ev(ptr noundef nonnull align 8 dereferenceable(32) %ref.tmp4) #3
  br label %eh.resume

eh.resume:                                        ; preds = %lpad
  %exn = load ptr, ptr %exn.slot, align 8
  %sel = load i32, ptr %ehselector.slot, align 4
  %lpad.val = insertvalue { ptr, i32 } poison, ptr %exn, 0
  %lpad.val6 = insertvalue { ptr, i32 } %lpad.val, i32 %sel, 1
  resume { ptr, i32 } %lpad.val6
}