; Function Attrs: mustprogress uwtable
define internal fastcc void @_ZN9grpc_core12_GLOBAL__N_119PublishToAppEncoder6AppendESt17basic_string_viewIcSt11char_traitsIcEEl(ptr nocapture noundef nonnull readonly align 8 dereferenceable(17) %this, i64 %key.coerce0, ptr %key.coerce1, i64 noundef %value) unnamed_addr #3 align 2 personality ptr @__gxx_personality_v0 {
entry:
  %buffer.i = alloca [24 x i8], align 16
  %agg.tmp = alloca %struct.grpc_slice, align 8
  %ref.tmp4 = alloca %"class.grpc_core::Slice", align 8
  store ptr inttoptr (i64 1 to ptr), ptr %agg.tmp, align 8
  %ref.tmp.sroa.2.0.agg.tmp.sroa_idx = getelementptr inbounds i8, ptr %agg.tmp, i64 8
  store i64 %key.coerce0, ptr %ref.tmp.sroa.2.0.agg.tmp.sroa_idx, align 8
  %ref.tmp.sroa.3.0.agg.tmp.sroa_idx = getelementptr inbounds i8, ptr %agg.tmp, i64 16
  store ptr %key.coerce1, ptr %ref.tmp.sroa.3.0.agg.tmp.sroa_idx, align 8
  call void @llvm.lifetime.start.p0(i64 24, ptr nonnull %buffer.i)
  %call.i = call noundef i32 @_Z8gpr_ltoalPc(i64 noundef %value, ptr noundef nonnull %buffer.i), !noalias !621
  %call.i.i = call i64 @strlen(ptr noundef nonnull dereferenceable(1) %buffer.i) #33, !noalias !624
  call void @grpc_slice_from_copied_buffer(ptr nonnull sret(%struct.grpc_slice) align 8 %ref.tmp4, ptr noundef nonnull %buffer.i, i64 noundef %call.i.i)
  call void @llvm.lifetime.end.p0(i64 24, ptr nonnull %buffer.i)
  invoke fastcc void @_ZN9grpc_core12_GLOBAL__N_119PublishToAppEncoder6AppendE10grpc_sliceS2_(ptr noundef nonnull align 8 dereferenceable(17) %this, ptr noundef nonnull byval(%struct.grpc_slice) align 8 %agg.tmp, ptr noundef nonnull byval(%struct.grpc_slice) align 8 %ref.tmp4)
          to label %invoke.cont unwind label %lpad

invoke.cont:                                      ; preds = %entry
  %0 = load ptr, ptr %ref.tmp4, align 8
  %cmp.i.i = icmp ugt ptr %0, inttoptr (i64 1 to ptr)
  br i1 %cmp.i.i, label %if.then.i.i, label %_ZN9grpc_core5SliceD2Ev.exit

if.then.i.i:                                      ; preds = %invoke.cont
  %1 = atomicrmw sub ptr %0, i64 1 acq_rel, align 8
  %cmp.i.i.i = icmp eq i64 %1, 1
  br i1 %cmp.i.i.i, label %if.then.i.i.i, label %_ZN9grpc_core5SliceD2Ev.exit

if.then.i.i.i:                                    ; preds = %if.then.i.i
  %destroyer_fn_.i.i.i = getelementptr inbounds i8, ptr %0, i64 8
  %2 = load ptr, ptr %destroyer_fn_.i.i.i, align 8
  invoke void %2(ptr noundef nonnull %0)
          to label %_ZN9grpc_core5SliceD2Ev.exit unwind label %terminate.lpad.i

terminate.lpad.i:                                 ; preds = %if.then.i.i.i
  %3 = landingpad { ptr, i32 }
          catch ptr null
  %4 = extractvalue { ptr, i32 } %3, 0
  call void @__clang_call_terminate(ptr %4) #30
  unreachable

_ZN9grpc_core5SliceD2Ev.exit:                     ; preds = %invoke.cont, %if.then.i.i, %if.then.i.i.i
  ret void

lpad:                                             ; preds = %entry
  %5 = landingpad { ptr, i32 }
          cleanup
  call void @_ZN9grpc_core5SliceD2Ev(ptr noundef nonnull align 8 dereferenceable(32) %ref.tmp4) #28
  resume { ptr, i32 } %5
}